target datalayout = "e-m:e-p270:32:32-p271:32:32-p272:64:64-i64:64-i128:128-f80:128-n8:16:32:64-S128"
target triple = "x86_64-unknown-linux-gnu"

; Function Attrs: nounwind uwtable
define hidden void @bn_sqr_words(ptr noundef %r, ptr noundef %a, i32 noundef %n) #0 {
entry:
  %r.addr = alloca ptr, align 8
  %a.addr = alloca ptr, align 8
  %n.addr = alloca i32, align 4
  store ptr %r, ptr %r.addr, align 8
  store ptr %a, ptr %a.addr, align 8
  store i32 %n, ptr %n.addr, align 4
  %0 = load i32, ptr %n.addr, align 4
  %cmp = icmp sle i32 %0, 0
  br i1 %cmp, label %if.then, label %if.end

if.then:                                          ; preds = %entry
  br label %if.end44

if.end:                                           ; preds = %entry
  br label %while.cond

while.cond:                                       ; preds = %while.body, %if.end
  %1 = load i32, ptr %n.addr, align 4
  %and = and i32 %1, -4
  %tobool = icmp ne i32 %and, 0
  br i1 %tobool, label %while.body, label %while.end

while.body:                                       ; preds = %while.cond
  %2 = load ptr, ptr %r.addr, align 8
  %arrayidx = getelementptr inbounds i64, ptr %2, i64 0
  %3 = load ptr, ptr %r.addr, align 8
  %arrayidx1 = getelementptr inbounds i64, ptr %3, i64 1
  %4 = load ptr, ptr %a.addr, align 8
  %arrayidx2 = getelementptr inbounds i64, ptr %4, i64 0
  %5 = load i64, ptr %arrayidx2, align 8
  %6 = call { i64, i64 } asm "mulq $2", "={ax},={dx},{ax},~{cc},~{dirflag},~{fpsr},~{flags}"(i64 %5) #3, !srcloc !45
  %asmresult = extractvalue { i64, i64 } %6, 0
  %asmresult3 = extractvalue { i64, i64 } %6, 1
  store i64 %asmresult, ptr %arrayidx, align 8
  store i64 %asmresult3, ptr %arrayidx1, align 8
  %7 = load ptr, ptr %r.addr, align 8
  %arrayidx4 = getelementptr inbounds i64, ptr %7, i64 2
  %8 = load ptr, ptr %r.addr, align 8
  %arrayidx5 = getelementptr inbounds i64, ptr %8, i64 3
  %9 = load ptr, ptr %a.addr, align 8
  %arrayidx6 = getelementptr inbounds i64, ptr %9, i64 1
  %10 = load i64, ptr %arrayidx6, align 8
  %11 = call { i64, i64 } asm "mulq $2", "={ax},={dx},{ax},~{cc},~{dirflag},~{fpsr},~{flags}"(i64 %10) #3, !srcloc !46
  %asmresult7 = extractvalue { i64, i64 } %11, 0
  %asmresult8 = extractvalue { i64, i64 } %11, 1
  store i64 %asmresult7, ptr %arrayidx4, align 8
  store i64 %asmresult8, ptr %arrayidx5, align 8
  %12 = load ptr, ptr %r.addr, align 8
  %arrayidx9 = getelementptr inbounds i64, ptr %12, i64 4
  %13 = load ptr, ptr %r.addr, align 8
  %arrayidx10 = getelementptr inbounds i64, ptr %13, i64 5
  %14 = load ptr, ptr %a.addr, align 8
  %arrayidx11 = getelementptr inbounds i64, ptr %14, i64 2
  %15 = load i64, ptr %arrayidx11, align 8
  %16 = call { i64, i64 } asm "mulq $2", "={ax},={dx},{ax},~{cc},~{dirflag},~{fpsr},~{flags}"(i64 %15) #3, !srcloc !47
  %asmresult12 = extractvalue { i64, i64 } %16, 0
  %asmresult13 = extractvalue { i64, i64 } %16, 1
  store i64 %asmresult12, ptr %arrayidx9, align 8
  store i64 %asmresult13, ptr %arrayidx10, align 8
  %17 = load ptr, ptr %r.addr, align 8
  %arrayidx14 = getelementptr inbounds i64, ptr %17, i64 6
  %18 = load ptr, ptr %r.addr, align 8
  %arrayidx15 = getelementptr inbounds i64, ptr %18, i64 7
  %19 = load ptr, ptr %a.addr, align 8
  %arrayidx16 = getelementptr inbounds i64, ptr %19, i64 3
  %20 = load i64, ptr %arrayidx16, align 8
  %21 = call { i64, i64 } asm "mulq $2", "={ax},={dx},{ax},~{cc},~{dirflag},~{fpsr},~{flags}"(i64 %20) #3, !srcloc !48
  %asmresult17 = extractvalue { i64, i64 } %21, 0
  %asmresult18 = extractvalue { i64, i64 } %21, 1
  store i64 %asmresult17, ptr %arrayidx14, align 8
  store i64 %asmresult18, ptr %arrayidx15, align 8
  %22 = load ptr, ptr %a.addr, align 8
  %add.ptr = getelementptr inbounds i64, ptr %22, i64 4
  store ptr %add.ptr, ptr %a.addr, align 8
  %23 = load ptr, ptr %r.addr, align 8
  %add.ptr19 = getelementptr inbounds i64, ptr %23, i64 8
  store ptr %add.ptr19, ptr %r.addr, align 8
  %24 = load i32, ptr %n.addr, align 4
  %sub = sub nsw i32 %24, 4
  store i32 %sub, ptr %n.addr, align 4
  br label %while.cond, !llvm.loop !49

while.end:                                        ; preds = %while.cond
  %25 = load i32, ptr %n.addr, align 4
  %tobool20 = icmp ne i32 %25, 0
  br i1 %tobool20, label %if.then21, label %if.end44

if.then21:                                        ; preds = %while.end
  %26 = load ptr, ptr %r.addr, align 8
  %arrayidx22 = getelementptr inbounds i64, ptr %26, i64 0
  %27 = load ptr, ptr %r.addr, align 8
  %arrayidx23 = getelementptr inbounds i64, ptr %27, i64 1
  %28 = load ptr, ptr %a.addr, align 8
  %arrayidx24 = getelementptr inbounds i64, ptr %28, i64 0
  %29 = load i64, ptr %arrayidx24, align 8
  %30 = call { i64, i64 } asm "mulq $2", "={ax},={dx},{ax},~{cc},~{dirflag},~{fpsr},~{flags}"(i64 %29) #3, !srcloc !50
  %asmresult25 = extractvalue { i64, i64 } %30, 0
  %asmresult26 = extractvalue { i64, i64 } %30, 1
  store i64 %asmresult25, ptr %arrayidx22, align 8
  store i64 %asmresult26, ptr %arrayidx23, align 8
  %31 = load i32, ptr %n.addr, align 4
  %dec = add nsw i32 %31, -1
  store i32 %dec, ptr %n.addr, align 4
  %cmp27 = icmp eq i32 %dec, 0
  br i1 %cmp27, label %if.then28, label %if.end29

if.then28:                                        ; preds = %if.then21
  br label %if.end44

if.end29:                                         ; preds = %if.then21
  %32 = load ptr, ptr %r.addr, align 8
  %arrayidx30 = getelementptr inbounds i64, ptr %32, i64 2
  %33 = load ptr, ptr %r.addr, align 8
  %arrayidx31 = getelementptr inbounds i64, ptr %33, i64 3
  %34 = load ptr, ptr %a.addr, align 8
  %arrayidx32 = getelementptr inbounds i64, ptr %34, i64 1
  %35 = load i64, ptr %arrayidx32, align 8
  %36 = call { i64, i64 } asm "mulq $2", "={ax},={dx},{ax},~{cc},~{dirflag},~{fpsr},~{flags}"(i64 %35) #3, !srcloc !51
  %asmresult33 = extractvalue { i64, i64 } %36, 0
  %asmresult34 = extractvalue { i64, i64 } %36, 1
  store i64 %asmresult33, ptr %arrayidx30, align 8
  store i64 %asmresult34, ptr %arrayidx31, align 8
  %37 = load i32, ptr %n.addr, align 4
  %dec35 = add nsw i32 %37, -1
  store i32 %dec35, ptr %n.addr, align 4
  %cmp36 = icmp eq i32 %dec35, 0
  br i1 %cmp36, label %if.then37, label %if.end38

if.then37:                                        ; preds = %if.end29
  br label %if.end44

if.end38:                                         ; preds = %if.end29
  %38 = load ptr, ptr %r.addr, align 8
  %arrayidx39 = getelementptr inbounds i64, ptr %38, i64 4
  %39 = load ptr, ptr %r.addr, align 8
  %arrayidx40 = getelementptr inbounds i64, ptr %39, i64 5
  %40 = load ptr, ptr %a.addr, align 8
  %arrayidx41 = getelementptr inbounds i64, ptr %40, i64 2
  %41 = load i64, ptr %arrayidx41, align 8
  %42 = call { i64, i64 } asm "mulq $2", "={ax},={dx},{ax},~{cc},~{dirflag},~{fpsr},~{flags}"(i64 %41) #3, !srcloc !52
  %asmresult42 = extractvalue { i64, i64 } %42, 0
  %asmresult43 = extractvalue { i64, i64 } %42, 1
  store i64 %asmresult42, ptr %arrayidx39, align 8
  store i64 %asmresult43, ptr %arrayidx40, align 8
  br label %if.end44

if.end44:                                         ; preds = %if.end38, %if.then37, %if.then28, %while.end, %if.then
  ret void
}