; Function Attrs: nounwind memory(argmem: readwrite) uwtable
define hidden void @bn_sqr_words(ptr noundef writeonly captures(none) %r, ptr noundef readonly captures(none) %a, i32 noundef %n) local_unnamed_addr #2 {
entry:
  %cmp = icmp slt i32 %n, 1
  br i1 %cmp, label %if.end44, label %while.cond.preheader

while.cond.preheader:                             ; preds = %entry
  %tobool.not27 = icmp samesign ult i32 %n, 4
  br i1 %tobool.not27, label %if.then21, label %while.body

while.body:                                       ; preds = %while.cond.preheader, %while.body
  %n.addr.030 = phi i32 [ %sub, %while.body ], [ %n, %while.cond.preheader ]
  %a.addr.029 = phi ptr [ %add.ptr, %while.body ], [ %a, %while.cond.preheader ]
  %r.addr.028 = phi ptr [ %add.ptr19, %while.body ], [ %r, %while.cond.preheader ]
  %arrayidx1 = getelementptr inbounds nuw i8, ptr %r.addr.028, i64 8
  %0 = load i64, ptr %a.addr.029, align 8
  %1 = tail call { i64, i64 } asm "mulq $2", "={ax},={dx},{ax},~{cc},~{dirflag},~{fpsr},~{flags}"(i64 %0) #5, !srcloc !45
  %asmresult = extractvalue { i64, i64 } %1, 0
  %asmresult3 = extractvalue { i64, i64 } %1, 1
  store i64 %asmresult, ptr %r.addr.028, align 8
  store i64 %asmresult3, ptr %arrayidx1, align 8
  %arrayidx4 = getelementptr inbounds nuw i8, ptr %r.addr.028, i64 16
  %arrayidx5 = getelementptr inbounds nuw i8, ptr %r.addr.028, i64 24
  %arrayidx6 = getelementptr inbounds nuw i8, ptr %a.addr.029, i64 8
  %2 = load i64, ptr %arrayidx6, align 8
  %3 = tail call { i64, i64 } asm "mulq $2", "={ax},={dx},{ax},~{cc},~{dirflag},~{fpsr},~{flags}"(i64 %2) #5, !srcloc !46
  %asmresult7 = extractvalue { i64, i64 } %3, 0
  %asmresult8 = extractvalue { i64, i64 } %3, 1
  store i64 %asmresult7, ptr %arrayidx4, align 8
  store i64 %asmresult8, ptr %arrayidx5, align 8
  %arrayidx9 = getelementptr inbounds nuw i8, ptr %r.addr.028, i64 32
  %arrayidx10 = getelementptr inbounds nuw i8, ptr %r.addr.028, i64 40
  %arrayidx11 = getelementptr inbounds nuw i8, ptr %a.addr.029, i64 16
  %4 = load i64, ptr %arrayidx11, align 8
  %5 = tail call { i64, i64 } asm "mulq $2", "={ax},={dx},{ax},~{cc},~{dirflag},~{fpsr},~{flags}"(i64 %4) #5, !srcloc !47
  %asmresult12 = extractvalue { i64, i64 } %5, 0
  %asmresult13 = extractvalue { i64, i64 } %5, 1
  store i64 %asmresult12, ptr %arrayidx9, align 8
  store i64 %asmresult13, ptr %arrayidx10, align 8
  %arrayidx14 = getelementptr inbounds nuw i8, ptr %r.addr.028, i64 48
  %arrayidx15 = getelementptr inbounds nuw i8, ptr %r.addr.028, i64 56
  %arrayidx16 = getelementptr inbounds nuw i8, ptr %a.addr.029, i64 24
  %6 = load i64, ptr %arrayidx16, align 8
  %7 = tail call { i64, i64 } asm "mulq $2", "={ax},={dx},{ax},~{cc},~{dirflag},~{fpsr},~{flags}"(i64 %6) #5, !srcloc !48
  %asmresult17 = extractvalue { i64, i64 } %7, 0
  %asmresult18 = extractvalue { i64, i64 } %7, 1
  store i64 %asmresult17, ptr %arrayidx14, align 8
  store i64 %asmresult18, ptr %arrayidx15, align 8
  %add.ptr = getelementptr inbounds nuw i8, ptr %a.addr.029, i64 32
  %add.ptr19 = getelementptr inbounds nuw i8, ptr %r.addr.028, i64 64
  %sub = add nsw i32 %n.addr.030, -4
  %tobool.not = icmp ult i32 %sub, 4
  br i1 %tobool.not, label %while.end, label %while.body, !llvm.loop !49

while.end:                                        ; preds = %while.body
  %tobool20.not = icmp eq i32 %sub, 0
  br i1 %tobool20.not, label %if.end44, label %if.then21

if.then21:                                        ; preds = %while.cond.preheader, %while.end
  %n.addr.0.lcssa39 = phi i32 [ %sub, %while.end ], [ %n, %while.cond.preheader ]
  %a.addr.0.lcssa38 = phi ptr [ %add.ptr, %while.end ], [ %a, %while.cond.preheader ]
  %r.addr.0.lcssa37 = phi ptr [ %add.ptr19, %while.end ], [ %r, %while.cond.preheader ]
  %arrayidx23 = getelementptr inbounds nuw i8, ptr %r.addr.0.lcssa37, i64 8
  %8 = load i64, ptr %a.addr.0.lcssa38, align 8
  %9 = tail call { i64, i64 } asm "mulq $2", "={ax},={dx},{ax},~{cc},~{dirflag},~{fpsr},~{flags}"(i64 %8) #5, !srcloc !50
  %asmresult25 = extractvalue { i64, i64 } %9, 0
  %asmresult26 = extractvalue { i64, i64 } %9, 1
  store i64 %asmresult25, ptr %r.addr.0.lcssa37, align 8
  store i64 %asmresult26, ptr %arrayidx23, align 8
  %cmp27 = icmp eq i32 %n.addr.0.lcssa39, 1
  br i1 %cmp27, label %if.end44, label %if.end29

if.end29:                                         ; preds = %if.then21
  %arrayidx30 = getelementptr inbounds nuw i8, ptr %r.addr.0.lcssa37, i64 16
  %arrayidx31 = getelementptr inbounds nuw i8, ptr %r.addr.0.lcssa37, i64 24
  %arrayidx32 = getelementptr inbounds nuw i8, ptr %a.addr.0.lcssa38, i64 8
  %10 = load i64, ptr %arrayidx32, align 8
  %11 = tail call { i64, i64 } asm "mulq $2", "={ax},={dx},{ax},~{cc},~{dirflag},~{fpsr},~{flags}"(i64 %10) #5, !srcloc !51
  %asmresult33 = extractvalue { i64, i64 } %11, 0
  %asmresult34 = extractvalue { i64, i64 } %11, 1
  store i64 %asmresult33, ptr %arrayidx30, align 8
  store i64 %asmresult34, ptr %arrayidx31, align 8
  %cmp36 = icmp eq i32 %n.addr.0.lcssa39, 2
  br i1 %cmp36, label %if.end44, label %if.end38

if.end38:                                         ; preds = %if.end29
  %arrayidx39 = getelementptr inbounds nuw i8, ptr %r.addr.0.lcssa37, i64 32
  %arrayidx40 = getelementptr inbounds nuw i8, ptr %r.addr.0.lcssa37, i64 40
  %arrayidx41 = getelementptr inbounds nuw i8, ptr %a.addr.0.lcssa38, i64 16
  %12 = load i64, ptr %arrayidx41, align 8
  %13 = tail call { i64, i64 } asm "mulq $2", "={ax},={dx},{ax},~{cc},~{dirflag},~{fpsr},~{flags}"(i64 %12) #5, !srcloc !52
  %asmresult42 = extractvalue { i64, i64 } %13, 0
  %asmresult43 = extractvalue { i64, i64 } %13, 1
  store i64 %asmresult42, ptr %arrayidx39, align 8
  store i64 %asmresult43, ptr %arrayidx40, align 8
  br label %if.end44

if.end44:                                         ; preds = %if.end29, %if.then21, %entry, %if.end38, %while.end
  ret void
}